target datalayout = "e-m:e-p270:32:32-p271:32:32-p272:64:64-i64:64-i128:128-f80:128-n8:16:32:64-S128"
target triple = "x86_64-pc-linux-gnu"

%struct.WebPPicture = type { i32, i32, i32, i32, ptr, ptr, ptr, i32, i32, ptr, i32, [2 x i32], ptr, i32, [3 x i32], ptr, ptr, i32, ptr, ptr, i32, ptr, ptr, [3 x i32], ptr, ptr, [8 x i32], ptr, ptr, [2 x ptr] }

@stderr = external global ptr, align 8
@.str.127 = private unnamed_addr constant [2 x i8] c"\0A\00", align 1
@.str.238 = private unnamed_addr constant [3 x i8] c"%c\00", align 1
@.str.239 = private unnamed_addr constant [3 x i8] c"+.\00", align 1
@.str.240 = private unnamed_addr constant [5 x i8] c".-*X\00", align 1
@.str.241 = private unnamed_addr constant [6 x i8] c"%.2d \00", align 1
@.str.242 = private unnamed_addr constant [5 x i8] c"%3d \00", align 1
@.str.243 = private unnamed_addr constant [8 x i8] c"0x%.2x \00", align 1

; Function Attrs: nounwind uwtable
define internal void @PrintMapInfo(ptr noundef %0) #0 {
  %2 = alloca ptr, align 8
  %3 = alloca i32, align 4
  %4 = alloca i32, align 4
  %5 = alloca i32, align 4
  %6 = alloca i32, align 4
  %7 = alloca i32, align 4
  %8 = alloca i32, align 4
  store ptr %0, ptr %2, align 8
  %9 = load ptr, ptr %2, align 8
  %10 = getelementptr inbounds %struct.WebPPicture, ptr %9, i32 0, i32 18
  %11 = load ptr, ptr %10, align 8
  %12 = icmp ne ptr %11, null
  br i1 %12, label %13, label %105

13:                                               ; preds = %1
  %14 = load ptr, ptr %2, align 8
  %15 = getelementptr inbounds %struct.WebPPicture, ptr %14, i32 0, i32 2
  %16 = load i32, ptr %15, align 8
  %17 = add nsw i32 %16, 15
  %18 = sdiv i32 %17, 16
  store i32 %18, ptr %3, align 4
  %19 = load ptr, ptr %2, align 8
  %20 = getelementptr inbounds %struct.WebPPicture, ptr %19, i32 0, i32 3
  %21 = load i32, ptr %20, align 4
  %22 = add nsw i32 %21, 15
  %23 = sdiv i32 %22, 16
  store i32 %23, ptr %4, align 4
  %24 = load ptr, ptr %2, align 8
  %25 = getelementptr inbounds %struct.WebPPicture, ptr %24, i32 0, i32 17
  %26 = load i32, ptr %25, align 8
  store i32 %26, ptr %5, align 4
  store i32 0, ptr %7, align 4
  br label %27

27:                                               ; preds = %101, %13
  %28 = load i32, ptr %7, align 4
  %29 = load i32, ptr %4, align 4
  %30 = icmp slt i32 %28, %29
  br i1 %30, label %31, label %104

31:                                               ; preds = %27
  store i32 0, ptr %6, align 4
  br label %32

32:                                               ; preds = %95, %31
  %33 = load i32, ptr %6, align 4
  %34 = load i32, ptr %3, align 4
  %35 = icmp slt i32 %33, %34
  br i1 %35, label %36, label %98

36:                                               ; preds = %32
  %37 = load ptr, ptr %2, align 8
  %38 = getelementptr inbounds %struct.WebPPicture, ptr %37, i32 0, i32 18
  %39 = load ptr, ptr %38, align 8
  %40 = load i32, ptr %6, align 4
  %41 = load i32, ptr %7, align 4
  %42 = load i32, ptr %3, align 4
  %43 = mul nsw i32 %41, %42
  %44 = add nsw i32 %40, %43
  %45 = sext i32 %44 to i64
  %46 = getelementptr inbounds i8, ptr %39, i64 %45
  %47 = load i8, ptr %46, align 1
  %48 = zext i8 %47 to i32
  store i32 %48, ptr %8, align 4
  %49 = load i32, ptr %5, align 4
  %50 = icmp eq i32 %49, 1
  br i1 %50, label %51, label %59

51:                                               ; preds = %36
  %52 = load ptr, ptr @stderr, align 8
  %53 = load i32, ptr %8, align 4
  %54 = sext i32 %53 to i64
  %55 = getelementptr inbounds [3 x i8], ptr @.str.239, i64 0, i64 %54
  %56 = load i8, ptr %55, align 1
  %57 = sext i8 %56 to i32
  %58 = call i32 (ptr, ptr, ...) @fprintf(ptr noundef %52, ptr noundef @.str.238, i32 noundef %57) #6
  br label %94

59:                                               ; preds = %36
  %60 = load i32, ptr %5, align 4
  %61 = icmp eq i32 %60, 2
  br i1 %61, label %62, label %70

62:                                               ; preds = %59
  %63 = load ptr, ptr @stderr, align 8
  %64 = load i32, ptr %8, align 4
  %65 = sext i32 %64 to i64
  %66 = getelementptr inbounds [5 x i8], ptr @.str.240, i64 0, i64 %65
  %67 = load i8, ptr %66, align 1
  %68 = sext i8 %67 to i32
  %69 = call i32 (ptr, ptr, ...) @fprintf(ptr noundef %63, ptr noundef @.str.238, i32 noundef %68) #6
  br label %93

70:                                               ; preds = %59
  %71 = load i32, ptr %5, align 4
  %72 = icmp eq i32 %71, 3
  br i1 %72, label %73, label %77

73:                                               ; preds = %70
  %74 = load ptr, ptr @stderr, align 8
  %75 = load i32, ptr %8, align 4
  %76 = call i32 (ptr, ptr, ...) @fprintf(ptr noundef %74, ptr noundef @.str.241, i32 noundef %75) #6
  br label %92

77:                                               ; preds = %70
  %78 = load i32, ptr %5, align 4
  %79 = icmp eq i32 %78, 6
  br i1 %79, label %83, label %80

80:                                               ; preds = %77
  %81 = load i32, ptr %5, align 4
  %82 = icmp eq i32 %81, 7
  br i1 %82, label %83, label %87

83:                                               ; preds = %80, %77
  %84 = load ptr, ptr @stderr, align 8
  %85 = load i32, ptr %8, align 4
  %86 = call i32 (ptr, ptr, ...) @fprintf(ptr noundef %84, ptr noundef @.str.242, i32 noundef %85) #6
  br label %91

87:                                               ; preds = %80
  %88 = load ptr, ptr @stderr, align 8
  %89 = load i32, ptr %8, align 4
  %90 = call i32 (ptr, ptr, ...) @fprintf(ptr noundef %88, ptr noundef @.str.243, i32 noundef %89) #6
  br label %91

91:                                               ; preds = %87, %83
  br label %92

92:                                               ; preds = %91, %73
  br label %93

93:                                               ; preds = %92, %62
  br label %94

94:                                               ; preds = %93, %51
  br label %95

95:                                               ; preds = %94
  %96 = load i32, ptr %6, align 4
  %97 = add nsw i32 %96, 1
  store i32 %97, ptr %6, align 4
  br label %32, !llvm.loop !17

98:                                               ; preds = %32
  %99 = load ptr, ptr @stderr, align 8
  %100 = call i32 (ptr, ptr, ...) @fprintf(ptr noundef %99, ptr noundef @.str.127) #6
  br label %101

101:                                              ; preds = %98
  %102 = load i32, ptr %7, align 4
  %103 = add nsw i32 %102, 1
  store i32 %103, ptr %7, align 4
  br label %27, !llvm.loop !18

104:                                              ; preds = %27
  br label %105

105:                                              ; preds = %104, %1
  ret void
}