; Function Attrs: nofree nounwind uwtable
define internal fastcc void @PrintMapInfo(ptr nocapture noundef readonly %0) unnamed_addr #3 {
  %2 = getelementptr inbounds i8, ptr %0, i64 120
  %3 = load ptr, ptr %2, align 8
  %.not = icmp eq ptr %3, null
  br i1 %.not, label %.loopexit, label %4

4:                                                ; preds = %1
  %5 = getelementptr inbounds i8, ptr %0, i64 8
  %6 = load i32, ptr %5, align 8
  %7 = add nsw i32 %6, 15
  %8 = sdiv i32 %7, 16
  %9 = getelementptr inbounds i8, ptr %0, i64 12
  %10 = load i32, ptr %9, align 4
  %11 = add nsw i32 %10, 15
  %12 = sdiv i32 %11, 16
  %13 = getelementptr inbounds i8, ptr %0, i64 112
  %14 = load i32, ptr %13, align 8
  %15 = icmp sgt i32 %10, 0
  br i1 %15, label %.preheader.lr.ph, label %.loopexit

.preheader.lr.ph:                                 ; preds = %4
  %16 = icmp sgt i32 %6, 0
  %17 = and i32 %14, -2
  %or.cond = icmp eq i32 %17, 6
  br i1 %16, label %.preheader.lr.ph.split.us, label %.preheader.preheader

.preheader.preheader:                             ; preds = %.preheader.lr.ph
  %smax = tail call i32 @llvm.smax.i32(i32 %12, i32 1)
  br label %.preheader

.preheader.lr.ph.split.us:                        ; preds = %.preheader.lr.ph
  %smax113 = tail call i32 @llvm.smax.i32(i32 %8, i32 1)
  %18 = zext nneg i32 %8 to i64
  %smax119 = tail call i32 @llvm.smax.i32(i32 %12, i32 1)
  %wide.trip.count120 = zext nneg i32 %smax119 to i64
  %wide.trip.count114 = zext nneg i32 %smax113 to i64
  switch i32 %14, label %.preheader.lr.ph.split.us.split [
    i32 1, label %.preheader.us.us
    i32 2, label %.preheader.us.us44
    i32 3, label %.preheader.us.us51
  ]

.preheader.us.us:                                 ; preds = %.preheader.lr.ph.split.us, %._crit_edge.split.us.us.us
  %indvars.iv92 = phi i64 [ %indvars.iv.next93, %._crit_edge.split.us.us.us ], [ 0, %.preheader.lr.ph.split.us ]
  %19 = mul nuw nsw i64 %indvars.iv92, %18
  br label %20

20:                                               ; preds = %20, %.preheader.us.us
  %indvars.iv86 = phi i64 [ %indvars.iv.next87, %20 ], [ 0, %.preheader.us.us ]
  %21 = load ptr, ptr %2, align 8
  %22 = getelementptr inbounds i8, ptr %21, i64 %indvars.iv86
  %23 = getelementptr inbounds i8, ptr %22, i64 %19
  %24 = load i8, ptr %23, align 1
  %25 = load ptr, ptr @stderr, align 8
  %26 = zext i8 %24 to i64
  %27 = getelementptr inbounds [3 x i8], ptr @.str.239, i64 0, i64 %26
  %28 = load i8, ptr %27, align 1
  %29 = sext i8 %28 to i32
  %fputc28.us.us.us = tail call i32 @fputc(i32 %29, ptr %25)
  %indvars.iv.next87 = add nuw nsw i64 %indvars.iv86, 1
  %exitcond91.not = icmp eq i64 %indvars.iv.next87, %wide.trip.count114
  br i1 %exitcond91.not, label %._crit_edge.split.us.us.us, label %20, !llvm.loop !21

._crit_edge.split.us.us.us:                       ; preds = %20
  %30 = load ptr, ptr @stderr, align 8
  %fputc.us.us = tail call i32 @fputc(i32 10, ptr %30)
  %indvars.iv.next93 = add nuw nsw i64 %indvars.iv92, 1
  %exitcond97.not = icmp eq i64 %indvars.iv.next93, %wide.trip.count120
  br i1 %exitcond97.not, label %.loopexit, label %.preheader.us.us, !llvm.loop !22

.preheader.us.us44:                               ; preds = %.preheader.lr.ph.split.us, %._crit_edge.split.split.us.us.us
  %indvars.iv80 = phi i64 [ %indvars.iv.next81, %._crit_edge.split.split.us.us.us ], [ 0, %.preheader.lr.ph.split.us ]
  %31 = mul nuw nsw i64 %indvars.iv80, %18
  br label %32

32:                                               ; preds = %32, %.preheader.us.us44
  %indvars.iv74 = phi i64 [ %indvars.iv.next75, %32 ], [ 0, %.preheader.us.us44 ]
  %33 = load ptr, ptr %2, align 8
  %34 = getelementptr inbounds i8, ptr %33, i64 %indvars.iv74
  %35 = getelementptr inbounds i8, ptr %34, i64 %31
  %36 = load i8, ptr %35, align 1
  %37 = load ptr, ptr @stderr, align 8
  %38 = zext i8 %36 to i64
  %39 = getelementptr inbounds [5 x i8], ptr @.str.240, i64 0, i64 %38
  %40 = load i8, ptr %39, align 1
  %41 = sext i8 %40 to i32
  %fputc27.us.us.us = tail call i32 @fputc(i32 %41, ptr %37)
  %indvars.iv.next75 = add nuw nsw i64 %indvars.iv74, 1
  %exitcond79.not = icmp eq i64 %indvars.iv.next75, %wide.trip.count114
  br i1 %exitcond79.not, label %._crit_edge.split.split.us.us.us, label %32, !llvm.loop !21

._crit_edge.split.split.us.us.us:                 ; preds = %32
  %42 = load ptr, ptr @stderr, align 8
  %fputc.us.us47 = tail call i32 @fputc(i32 10, ptr %42)
  %indvars.iv.next81 = add nuw nsw i64 %indvars.iv80, 1
  %exitcond85.not = icmp eq i64 %indvars.iv.next81, %wide.trip.count120
  br i1 %exitcond85.not, label %.loopexit, label %.preheader.us.us44, !llvm.loop !22

.preheader.us.us51:                               ; preds = %.preheader.lr.ph.split.us, %._crit_edge.split.split.split.us.us.us
  %indvars.iv68 = phi i64 [ %indvars.iv.next69, %._crit_edge.split.split.split.us.us.us ], [ 0, %.preheader.lr.ph.split.us ]
  %43 = mul nuw nsw i64 %indvars.iv68, %18
  br label %44

44:                                               ; preds = %44, %.preheader.us.us51
  %indvars.iv = phi i64 [ %indvars.iv.next, %44 ], [ 0, %.preheader.us.us51 ]
  %45 = load ptr, ptr %2, align 8
  %46 = getelementptr inbounds i8, ptr %45, i64 %indvars.iv
  %47 = getelementptr inbounds i8, ptr %46, i64 %43
  %48 = load i8, ptr %47, align 1
  %49 = zext i8 %48 to i32
  %50 = load ptr, ptr @stderr, align 8
  %51 = tail call i32 (ptr, ptr, ...) @fprintf(ptr noundef %50, ptr noundef nonnull @.str.241, i32 noundef %49) #14
  %indvars.iv.next = add nuw nsw i64 %indvars.iv, 1
  %exitcond67.not = icmp eq i64 %indvars.iv.next, %wide.trip.count114
  br i1 %exitcond67.not, label %._crit_edge.split.split.split.us.us.us, label %44, !llvm.loop !21

._crit_edge.split.split.split.us.us.us:           ; preds = %44
  %52 = load ptr, ptr @stderr, align 8
  %fputc.us.us54 = tail call i32 @fputc(i32 10, ptr %52)
  %indvars.iv.next69 = add nuw nsw i64 %indvars.iv68, 1
  %exitcond73.not = icmp eq i64 %indvars.iv.next69, %wide.trip.count120
  br i1 %exitcond73.not, label %.loopexit, label %.preheader.us.us51, !llvm.loop !22

.preheader.lr.ph.split.us.split:                  ; preds = %.preheader.lr.ph.split.us
  br i1 %or.cond, label %.preheader.us.us57, label %.preheader.us

.preheader.us.us57:                               ; preds = %.preheader.lr.ph.split.us.split, %._crit_edge.split.split.split.split.us.us.us
  %indvars.iv116 = phi i64 [ %indvars.iv.next117, %._crit_edge.split.split.split.split.us.us.us ], [ 0, %.preheader.lr.ph.split.us.split ]
  %53 = mul nuw nsw i64 %indvars.iv116, %18
  br label %54

54:                                               ; preds = %54, %.preheader.us.us57
  %indvars.iv110 = phi i64 [ %indvars.iv.next111, %54 ], [ 0, %.preheader.us.us57 ]
  %55 = load ptr, ptr %2, align 8
  %56 = getelementptr inbounds i8, ptr %55, i64 %indvars.iv110
  %57 = getelementptr inbounds i8, ptr %56, i64 %53
  %58 = load i8, ptr %57, align 1
  %59 = zext i8 %58 to i32
  %60 = load ptr, ptr @stderr, align 8
  %61 = tail call i32 (ptr, ptr, ...) @fprintf(ptr noundef %60, ptr noundef nonnull @.str.242, i32 noundef %59) #14
  %indvars.iv.next111 = add nuw nsw i64 %indvars.iv110, 1
  %exitcond115.not = icmp eq i64 %indvars.iv.next111, %wide.trip.count114
  br i1 %exitcond115.not, label %._crit_edge.split.split.split.split.us.us.us, label %54, !llvm.loop !21

._crit_edge.split.split.split.split.us.us.us:     ; preds = %54
  %62 = load ptr, ptr @stderr, align 8
  %fputc.us.us59 = tail call i32 @fputc(i32 10, ptr %62)
  %indvars.iv.next117 = add nuw nsw i64 %indvars.iv116, 1
  %exitcond121.not = icmp eq i64 %indvars.iv.next117, %wide.trip.count120
  br i1 %exitcond121.not, label %.loopexit, label %.preheader.us.us57, !llvm.loop !22

.preheader.us:                                    ; preds = %.preheader.lr.ph.split.us.split, %._crit_edge.split.split.split.split.us37
  %indvars.iv104 = phi i64 [ %indvars.iv.next105, %._crit_edge.split.split.split.split.us37 ], [ 0, %.preheader.lr.ph.split.us.split ]
  %63 = mul nuw nsw i64 %indvars.iv104, %18
  br label %64

64:                                               ; preds = %.preheader.us, %64
  %indvars.iv98 = phi i64 [ 0, %.preheader.us ], [ %indvars.iv.next99, %64 ]
  %65 = load ptr, ptr %2, align 8
  %66 = getelementptr inbounds i8, ptr %65, i64 %indvars.iv98
  %67 = getelementptr inbounds i8, ptr %66, i64 %63
  %68 = load i8, ptr %67, align 1
  %69 = zext i8 %68 to i32
  %70 = load ptr, ptr @stderr, align 8
  %71 = tail call i32 (ptr, ptr, ...) @fprintf(ptr noundef %70, ptr noundef nonnull @.str.243, i32 noundef %69) #14
  %indvars.iv.next99 = add nuw nsw i64 %indvars.iv98, 1
  %exitcond103.not = icmp eq i64 %indvars.iv.next99, %wide.trip.count114
  br i1 %exitcond103.not, label %._crit_edge.split.split.split.split.us37, label %64, !llvm.loop !21

._crit_edge.split.split.split.split.us37:         ; preds = %64
  %72 = load ptr, ptr @stderr, align 8
  %fputc.us = tail call i32 @fputc(i32 10, ptr %72)
  %indvars.iv.next105 = add nuw nsw i64 %indvars.iv104, 1
  %exitcond109.not = icmp eq i64 %indvars.iv.next105, %wide.trip.count120
  br i1 %exitcond109.not, label %.loopexit, label %.preheader.us, !llvm.loop !22

.preheader:                                       ; preds = %.preheader.preheader, %.preheader
  %.02435 = phi i32 [ %74, %.preheader ], [ 0, %.preheader.preheader ]
  %73 = load ptr, ptr @stderr, align 8
  %fputc = tail call i32 @fputc(i32 10, ptr %73)
  %74 = add nuw nsw i32 %.02435, 1
  %exitcond.not = icmp eq i32 %74, %smax
  br i1 %exitcond.not, label %.loopexit, label %.preheader, !llvm.loop !22

.loopexit:                                        ; preds = %.preheader, %._crit_edge.split.split.split.us.us.us, %._crit_edge.split.split.us.us.us, %._crit_edge.split.us.us.us, %._crit_edge.split.split.split.split.us37, %._crit_edge.split.split.split.split.us.us.us, %4, %1
  ret void
}